target datalayout = "e-m:e-p270:32:32-p271:32:32-p272:64:64-i64:64-i128:128-f80:128-n8:16:32:64-S128"
target triple = "x86_64-pc-linux-gnu"

%struct.List = type { i32, i32, i32, ptr, [0 x %union.ListCell] }
%union.ListCell = type { ptr }
%struct.Node = type { i32 }
%struct.ForEachState = type { ptr, i32 }
%struct.FromExpr = type { i32, ptr, ptr }
%struct.JoinExpr = type { i32, i32, i8, ptr, ptr, ptr, ptr, ptr, ptr, i32 }

@.str.1 = private unnamed_addr constant [10 x i8] c"planner.c\00", align 1
@.str.2 = private unnamed_addr constant [27 x i8] c"unrecognized node type: %d\00", align 1
@__func__.preprocess_qual_conditions = private unnamed_addr constant [27 x i8] c"preprocess_qual_conditions\00", align 1

; Function Attrs: nounwind uwtable
define internal void @preprocess_qual_conditions(ptr noundef %0, ptr noundef %1) #0 {
  %3 = alloca ptr, align 8
  %4 = alloca ptr, align 8
  %5 = alloca ptr, align 8
  %6 = alloca ptr, align 8
  %7 = alloca %struct.ForEachState, align 8
  %8 = alloca ptr, align 8
  store ptr %0, ptr %3, align 8
  store ptr %1, ptr %4, align 8
  %9 = load ptr, ptr %4, align 8
  %10 = icmp eq ptr %9, null
  br i1 %10, label %11, label %12

11:                                               ; preds = %2
  br label %110

12:                                               ; preds = %2
  %13 = load ptr, ptr %4, align 8
  %14 = getelementptr inbounds nuw %struct.Node, ptr %13, i32 0, i32 0
  %15 = load i32, ptr %14, align 4
  %16 = icmp eq i32 %15, 63
  br i1 %16, label %17, label %18

17:                                               ; preds = %12
  br label %110

18:                                               ; preds = %12
  %19 = load ptr, ptr %4, align 8
  %20 = getelementptr inbounds nuw %struct.Node, ptr %19, i32 0, i32 0
  %21 = load i32, ptr %20, align 4
  %22 = icmp eq i32 %21, 65
  br i1 %22, label %23, label %73

23:                                               ; preds = %18
  call void @llvm.lifetime.start.p0(i64 8, ptr %5) #8
  %24 = load ptr, ptr %4, align 8
  store ptr %24, ptr %5, align 8
  call void @llvm.lifetime.start.p0(i64 8, ptr %6) #8
  call void @llvm.lifetime.start.p0(i64 16, ptr %7) #8
  %25 = getelementptr inbounds nuw %struct.ForEachState, ptr %7, i32 0, i32 0
  %26 = load ptr, ptr %5, align 8
  %27 = getelementptr inbounds nuw %struct.FromExpr, ptr %26, i32 0, i32 1
  %28 = load ptr, ptr %27, align 8
  store ptr %28, ptr %25, align 8
  %29 = getelementptr inbounds nuw %struct.ForEachState, ptr %7, i32 0, i32 1
  store i32 0, ptr %29, align 8
  %30 = getelementptr i8, ptr %7, i64 12
  call void @llvm.memset.p0.i64(ptr align 4 %30, i8 0, i64 4, i1 false)
  br label %31

31:                                               ; preds = %61, %23
  %32 = getelementptr inbounds nuw %struct.ForEachState, ptr %7, i32 0, i32 0
  %33 = load ptr, ptr %32, align 8
  %34 = icmp ne ptr %33, null
  br i1 %34, label %35, label %52

35:                                               ; preds = %31
  %36 = getelementptr inbounds nuw %struct.ForEachState, ptr %7, i32 0, i32 1
  %37 = load i32, ptr %36, align 8
  %38 = getelementptr inbounds nuw %struct.ForEachState, ptr %7, i32 0, i32 0
  %39 = load ptr, ptr %38, align 8
  %40 = getelementptr inbounds nuw %struct.List, ptr %39, i32 0, i32 1
  %41 = load i32, ptr %40, align 4
  %42 = icmp slt i32 %37, %41
  br i1 %42, label %43, label %52

43:                                               ; preds = %35
  %44 = getelementptr inbounds nuw %struct.ForEachState, ptr %7, i32 0, i32 0
  %45 = load ptr, ptr %44, align 8
  %46 = getelementptr inbounds nuw %struct.List, ptr %45, i32 0, i32 3
  %47 = load ptr, ptr %46, align 8
  %48 = getelementptr inbounds nuw %struct.ForEachState, ptr %7, i32 0, i32 1
  %49 = load i32, ptr %48, align 8
  %50 = sext i32 %49 to i64
  %51 = getelementptr inbounds %union.ListCell, ptr %47, i64 %50
  store ptr %51, ptr %6, align 8
  br label %53

52:                                               ; preds = %35, %31
  store ptr null, ptr %6, align 8
  br label %53

53:                                               ; preds = %52, %43
  %54 = phi i32 [ 1, %43 ], [ 0, %52 ]
  %55 = icmp ne i32 %54, 0
  br i1 %55, label %57, label %56

56:                                               ; preds = %53
  call void @llvm.lifetime.end.p0(i64 16, ptr %7) #8
  br label %65

57:                                               ; preds = %53
  %58 = load ptr, ptr %3, align 8
  %59 = load ptr, ptr %6, align 8
  %60 = load ptr, ptr %59, align 8
  call void @preprocess_qual_conditions(ptr noundef %58, ptr noundef %60)
  br label %61

61:                                               ; preds = %57
  %62 = getelementptr inbounds nuw %struct.ForEachState, ptr %7, i32 0, i32 1
  %63 = load i32, ptr %62, align 8
  %64 = add i32 %63, 1
  store i32 %64, ptr %62, align 8
  br label %31, !llvm.loop !20

65:                                               ; preds = %56
  %66 = load ptr, ptr %3, align 8
  %67 = load ptr, ptr %5, align 8
  %68 = getelementptr inbounds nuw %struct.FromExpr, ptr %67, i32 0, i32 2
  %69 = load ptr, ptr %68, align 8
  %70 = call ptr @preprocess_expression(ptr noundef %66, ptr noundef %69, i32 noundef 0)
  %71 = load ptr, ptr %5, align 8
  %72 = getelementptr inbounds nuw %struct.FromExpr, ptr %71, i32 0, i32 2
  store ptr %70, ptr %72, align 8
  call void @llvm.lifetime.end.p0(i64 8, ptr %6) #8
  call void @llvm.lifetime.end.p0(i64 8, ptr %5) #8
  br label %109

73:                                               ; preds = %18
  %74 = load ptr, ptr %4, align 8
  %75 = getelementptr inbounds nuw %struct.Node, ptr %74, i32 0, i32 0
  %76 = load i32, ptr %75, align 4
  %77 = icmp eq i32 %76, 64
  br i1 %77, label %78, label %95

78:                                               ; preds = %73
  call void @llvm.lifetime.start.p0(i64 8, ptr %8) #8
  %79 = load ptr, ptr %4, align 8
  store ptr %79, ptr %8, align 8
  %80 = load ptr, ptr %3, align 8
  %81 = load ptr, ptr %8, align 8
  %82 = getelementptr inbounds nuw %struct.JoinExpr, ptr %81, i32 0, i32 3
  %83 = load ptr, ptr %82, align 8
  call void @preprocess_qual_conditions(ptr noundef %80, ptr noundef %83)
  %84 = load ptr, ptr %3, align 8
  %85 = load ptr, ptr %8, align 8
  %86 = getelementptr inbounds nuw %struct.JoinExpr, ptr %85, i32 0, i32 4
  %87 = load ptr, ptr %86, align 8
  call void @preprocess_qual_conditions(ptr noundef %84, ptr noundef %87)
  %88 = load ptr, ptr %3, align 8
  %89 = load ptr, ptr %8, align 8
  %90 = getelementptr inbounds nuw %struct.JoinExpr, ptr %89, i32 0, i32 7
  %91 = load ptr, ptr %90, align 8
  %92 = call ptr @preprocess_expression(ptr noundef %88, ptr noundef %91, i32 noundef 0)
  %93 = load ptr, ptr %8, align 8
  %94 = getelementptr inbounds nuw %struct.JoinExpr, ptr %93, i32 0, i32 7
  store ptr %92, ptr %94, align 8
  call void @llvm.lifetime.end.p0(i64 8, ptr %8) #8
  br label %108

95:                                               ; preds = %73
  br label %96

96:                                               ; preds = %95
  br i1 true, label %97, label %99

97:                                               ; preds = %96
  %98 = call zeroext i1 @errstart_cold(i32 noundef 21, ptr noundef null) #9
  br i1 %98, label %101, label %106

99:                                               ; preds = %96
  %100 = call zeroext i1 @errstart(i32 noundef 21, ptr noundef null)
  br i1 %100, label %101, label %106

101:                                              ; preds = %99, %97
  %102 = load ptr, ptr %4, align 8
  %103 = getelementptr inbounds nuw %struct.Node, ptr %102, i32 0, i32 0
  %104 = load i32, ptr %103, align 4
  %105 = call i32 (ptr, ...) @errmsg_internal(ptr noundef @.str.2, i32 noundef %104)
  call void @errfinish(ptr noundef @.str.1, i32 noundef 1319, ptr noundef @__func__.preprocess_qual_conditions)
  br label %106

106:                                              ; preds = %101, %99, %97
  unreachable

107:                                              ; No predecessors!
  br label %108

108:                                              ; preds = %107, %78
  br label %109

109:                                              ; preds = %108, %65
  br label %110

110:                                              ; preds = %11, %109, %17
  ret void
}