; Function Attrs: nounwind uwtable
define internal fastcc void @preprocess_qual_conditions(ptr noundef %0, ptr noundef captures(address_is_null) %1) unnamed_addr #0 {
  %3 = icmp eq ptr %1, null
  br i1 %3, label %common.ret, label %4

4:                                                ; preds = %2
  %5 = load i32, ptr %1, align 4
  switch i32 %5, label %27 [
    i32 63, label %common.ret
    i32 65, label %6
    i32 64, label %22
  ]

6:                                                ; preds = %4
  %7 = getelementptr inbounds nuw i8, ptr %1, i64 8
  %8 = load ptr, ptr %7, align 8
  %9 = getelementptr inbounds nuw i8, ptr %8, i64 4
  %.not = icmp eq ptr %8, null
  br i1 %.not, label %common.ret.sink.split, label %.lr.ph

.lr.ph:                                           ; preds = %6
  %10 = getelementptr inbounds nuw i8, ptr %8, i64 16
  %11 = load i32, ptr %9, align 4
  %12 = icmp sgt i32 %11, 0
  br i1 %12, label %.lr.ph33, label %common.ret.sink.split

.lr.ph33:                                         ; preds = %.lr.ph, %.lr.ph33
  %indvars.iv = phi i64 [ %indvars.iv.next, %.lr.ph33 ], [ 0, %.lr.ph ]
  %13 = load ptr, ptr %10, align 8
  %14 = getelementptr inbounds nuw %union.ListCell, ptr %13, i64 %indvars.iv
  %15 = load ptr, ptr %14, align 8
  tail call fastcc void @preprocess_qual_conditions(ptr noundef %0, ptr noundef %15)
  %indvars.iv.next = add nuw nsw i64 %indvars.iv, 1
  %16 = load i32, ptr %9, align 4
  %17 = sext i32 %16 to i64
  %18 = icmp slt i64 %indvars.iv.next, %17
  br i1 %18, label %.lr.ph33, label %common.ret.sink.split

common.ret.sink.split:                            ; preds = %.lr.ph33, %6, %.lr.ph, %22
  %.sink37 = phi i64 [ 48, %22 ], [ 16, %.lr.ph ], [ 16, %6 ], [ 16, %.lr.ph33 ]
  %19 = getelementptr inbounds nuw i8, ptr %1, i64 %.sink37
  %20 = load ptr, ptr %19, align 8
  %21 = tail call fastcc ptr @preprocess_expression(ptr noundef %0, ptr noundef %20, i32 noundef 0)
  store ptr %21, ptr %19, align 8
  br label %common.ret

common.ret:                                       ; preds = %common.ret.sink.split, %2, %4
  ret void

22:                                               ; preds = %4
  %23 = getelementptr inbounds nuw i8, ptr %1, i64 16
  %24 = load ptr, ptr %23, align 8
  tail call fastcc void @preprocess_qual_conditions(ptr noundef %0, ptr noundef %24)
  %25 = getelementptr inbounds nuw i8, ptr %1, i64 24
  %26 = load ptr, ptr %25, align 8
  tail call fastcc void @preprocess_qual_conditions(ptr noundef %0, ptr noundef %26)
  br label %common.ret.sink.split

27:                                               ; preds = %4
  %28 = tail call zeroext i1 @errstart_cold(i32 noundef 21, ptr noundef null) #13
  tail call void @llvm.assume(i1 %28)
  %29 = load i32, ptr %1, align 4
  %30 = tail call i32 (ptr, ...) @errmsg_internal(ptr noundef nonnull @.str.2, i32 noundef %29) #12
  tail call void @errfinish(ptr noundef nonnull @.str.1, i32 noundef 1319, ptr noundef nonnull @__func__.preprocess_qual_conditions) #12
  unreachable
}